; Function Attrs: mustprogress nounwind uwtable
define hidden void @_ZN4cvc58internal13FloatingPointD2Ev(ptr noundef nonnull align 8 captures(none) dereferenceable(8) %0) unnamed_addr #7 align 2 personality ptr @__gxx_personality_v0 {
  %2 = load ptr, ptr %0, align 8, !tbaa !3
  %.not.i = icmp eq ptr %2, null
  br i1 %.not.i, label %_ZNSt10unique_ptrIN4cvc58internal20FloatingPointLiteralESt14default_deleteIS2_EED2Ev.exit, label %3

3:                                                ; preds = %1
  %4 = getelementptr inbounds nuw i8, ptr %2, i64 48
  invoke void @__gmpz_clear(ptr noundef nonnull align 8 dereferenceable(16) %4)
          to label %_ZN4cvc58internal9BitVectorD2Ev.exit.i.i.i.i unwind label %5

5:                                                ; preds = %3
  %6 = landingpad { ptr, i32 }
          catch ptr null
  %7 = extractvalue { ptr, i32 } %6, 0
  tail call void @__clang_call_terminate(ptr %7) #19
  unreachable

_ZN4cvc58internal9BitVectorD2Ev.exit.i.i.i.i:     ; preds = %3
  %8 = getelementptr inbounds nuw i8, ptr %2, i64 24
  invoke void @__gmpz_clear(ptr noundef nonnull align 8 dereferenceable(16) %8)
          to label %_ZNKSt14default_deleteIN4cvc58internal20FloatingPointLiteralEEclEPS2_.exit.i unwind label %9

9:                                                ; preds = %_ZN4cvc58internal9BitVectorD2Ev.exit.i.i.i.i
  %10 = landingpad { ptr, i32 }
          catch ptr null
  %11 = extractvalue { ptr, i32 } %10, 0
  tail call void @__clang_call_terminate(ptr %11) #19
  unreachable

_ZNKSt14default_deleteIN4cvc58internal20FloatingPointLiteralEEclEPS2_.exit.i: ; preds = %_ZN4cvc58internal9BitVectorD2Ev.exit.i.i.i.i
  tail call void @_ZdlPvm(ptr noundef nonnull %2, i64 noundef 64) #18
  br label %_ZNSt10unique_ptrIN4cvc58internal20FloatingPointLiteralESt14default_deleteIS2_EED2Ev.exit

_ZNSt10unique_ptrIN4cvc58internal20FloatingPointLiteralESt14default_deleteIS2_EED2Ev.exit: ; preds = %1, %_ZNKSt14default_deleteIN4cvc58internal20FloatingPointLiteralEEclEPS2_.exit.i
  store ptr null, ptr %0, align 8, !tbaa !3
  ret void
}